; Function Attrs: mustprogress nounwind sspstrong willreturn uwtable
define void @_ZN4FLAC8Metadata13VorbisComment5Entry16clear_field_nameEv(ptr nocapture noundef nonnull align 8 dereferenceable(60) %this) local_unnamed_addr #14 align 2 {
entry:
  %field_name_ = getelementptr inbounds i8, ptr %this, i64 32
  %0 = load ptr, ptr %field_name_, align 8
  %cmp.not = icmp eq ptr %0, null
  br i1 %cmp.not, label %if.end, label %if.then

if.then:                                          ; preds = %entry
  tail call void @free(ptr noundef nonnull %0) #20
  store ptr null, ptr %field_name_, align 8
  %field_name_length_ = getelementptr inbounds i8, ptr %this, i64 40
  store i32 0, ptr %field_name_length_, align 8
  br label %if.end

if.end:                                           ; preds = %if.then, %entry
  ret void
}